target datalayout = "e-m:e-p270:32:32-p271:32:32-p272:64:64-i64:64-i128:128-f80:128-n8:16:32:64-S128"
target triple = "x86_64-unknown-linux-gnu"

%"class.cvc5::internal::theory::arith::linear::RaiseConflict" = type { ptr }
%"class.cvc5::internal::theory::arith::linear::TempVarMalloc" = type { %"class.cvc5::internal::theory::arith::linear::ArithVarMalloc", ptr }
%"class.cvc5::internal::theory::arith::linear::ArithVarMalloc" = type { ptr }
%"class.cvc5::internal::theory::arith::linear::FCSimplexDecisionProcedure" = type { %"class.cvc5::internal::theory::arith::linear::SimplexDecisionProcedure", %"class.cvc5::internal::DenseMultiset", i32, i32, %"class.cvc5::internal::DenseMap.5", i32, i32, i32, %"class.cvc5::internal::DenseMap.4", %"class.std::vector", %"class.cvc5::internal::theory::arith::linear::FCSimplexDecisionProcedure::Statistics" }
%"class.cvc5::internal::theory::arith::linear::SimplexDecisionProcedure" = type { %"class.cvc5::internal::EnvObj", i32, %"class.cvc5::internal::DenseSet", i32, ptr, ptr, ptr, ptr, i32, %"class.cvc5::internal::theory::arith::linear::RaiseConflict", ptr, %"class.cvc5::internal::theory::arith::linear::TempVarMalloc", i32, %"class.cvc5::internal::Rational", %"class.cvc5::internal::Rational", %"class.cvc5::internal::Rational", i64 }
%"class.cvc5::internal::EnvObj" = type { ptr, ptr }
%"class.cvc5::internal::DenseSet" = type { %"class.cvc5::internal::DenseMap" }
%"class.cvc5::internal::DenseMap" = type { %"class.std::vector", %"class.std::vector", %"class.std::vector.0" }
%"class.std::vector.0" = type { %"struct.std::_Bvector_base" }
%"struct.std::_Bvector_base" = type { %"struct.std::_Bvector_base<std::allocator<bool>>::_Bvector_impl" }
%"struct.std::_Bvector_base<std::allocator<bool>>::_Bvector_impl" = type { %"struct.std::_Bvector_base<std::allocator<bool>>::_Bvector_impl_data" }
%"struct.std::_Bvector_base<std::allocator<bool>>::_Bvector_impl_data" = type { %"struct.std::_Bit_iterator", %"struct.std::_Bit_iterator", ptr }
%"struct.std::_Bit_iterator" = type { %"struct.std::_Bit_iterator_base.base", [4 x i8] }
%"struct.std::_Bit_iterator_base.base" = type <{ ptr, i32 }>
%"class.cvc5::internal::Rational" = type { %class.__gmp_expr }
%class.__gmp_expr = type { [1 x %struct.__mpq_struct] }
%struct.__mpq_struct = type { %struct.__mpz_struct, %struct.__mpz_struct }
%struct.__mpz_struct = type { i32, i32, ptr }
%"class.cvc5::internal::DenseMultiset" = type { %"class.cvc5::internal::DenseMap.4" }
%"class.cvc5::internal::DenseMap.5" = type { %"class.std::vector", %"class.std::vector", %"class.std::vector.6" }
%"class.std::vector.6" = type { %"struct.std::_Vector_base.7" }
%"struct.std::_Vector_base.7" = type { %"struct.std::_Vector_base<const cvc5::internal::Rational *, std::allocator<const cvc5::internal::Rational *>>::_Vector_impl" }
%"struct.std::_Vector_base<const cvc5::internal::Rational *, std::allocator<const cvc5::internal::Rational *>>::_Vector_impl" = type { %"struct.std::_Vector_base<const cvc5::internal::Rational *, std::allocator<const cvc5::internal::Rational *>>::_Vector_impl_data" }
%"struct.std::_Vector_base<const cvc5::internal::Rational *, std::allocator<const cvc5::internal::Rational *>>::_Vector_impl_data" = type { ptr, ptr, ptr }
%"class.cvc5::internal::DenseMap.4" = type { %"class.std::vector", %"class.std::vector", %"class.std::vector" }
%"class.std::vector" = type { %"struct.std::_Vector_base" }
%"struct.std::_Vector_base" = type { %"struct.std::_Vector_base<unsigned int, std::allocator<unsigned int>>::_Vector_impl" }
%"struct.std::_Vector_base<unsigned int, std::allocator<unsigned int>>::_Vector_impl" = type { %"struct.std::_Vector_base<unsigned int, std::allocator<unsigned int>>::_Vector_impl_data" }
%"struct.std::_Vector_base<unsigned int, std::allocator<unsigned int>>::_Vector_impl_data" = type { ptr, ptr, ptr }
%"class.cvc5::internal::theory::arith::linear::FCSimplexDecisionProcedure::Statistics" = type { %"class.cvc5::internal::TimerStat", %"class.cvc5::internal::IntStat", %"class.cvc5::internal::IntStat", %"class.cvc5::internal::IntStat", %"class.cvc5::internal::IntStat", %"class.cvc5::internal::TimerStat", %"class.cvc5::internal::TimerStat", %"class.cvc5::internal::TimerStat", %"class.cvc5::internal::TimerStat", %"class.cvc5::internal::ReferenceStat" }
%"class.cvc5::internal::IntStat" = type { %"class.cvc5::internal::ValueStat" }
%"class.cvc5::internal::ValueStat" = type { ptr }
%"class.cvc5::internal::TimerStat" = type { ptr }
%"class.cvc5::internal::ReferenceStat" = type { ptr }
%"class.__gnu_cxx::__normal_iterator.322" = type { ptr }

; Function Attrs: mustprogress nounwind uwtable
define linkonce_odr hidden noundef nonnull align 8 dereferenceable(8) ptr @_ZNK9__gnu_cxx17__normal_iteratorIPKjSt6vectorIjSaIjEEE4baseEv(ptr noundef nonnull align 8 dereferenceable(8) %this) #6 comdat align 2 {
entry:
  %this.addr = alloca ptr, align 8
  store ptr %this, ptr %this.addr, align 8
  %this1 = load ptr, ptr %this.addr, align 8
  %_M_current = getelementptr inbounds %"class.__gnu_cxx::__normal_iterator.322", ptr %this1, i32 0, i32 0
  ret ptr %_M_current
}

; Function Attrs: mustprogress nounwind uwtable
define linkonce_odr hidden void @_ZN9__gnu_cxx17__normal_iteratorIPKjSt6vectorIjSaIjEEEC2ERKS2_(ptr noundef nonnull align 8 dereferenceable(8) %this, ptr noundef nonnull align 8 dereferenceable(8) %__i) unnamed_addr #6 comdat align 2 {
entry:
  %this.addr = alloca ptr, align 8
  %__i.addr = alloca ptr, align 8
  store ptr %this, ptr %this.addr, align 8
  store ptr %__i, ptr %__i.addr, align 8
  %this1 = load ptr, ptr %this.addr, align 8
  %_M_current = getelementptr inbounds %"class.__gnu_cxx::__normal_iterator.322", ptr %this1, i32 0, i32 0
  %0 = load ptr, ptr %__i.addr, align 8
  %1 = load ptr, ptr %0, align 8
  store ptr %1, ptr %_M_current, align 8
  ret void
}

; Function Attrs: mustprogress nounwind uwtable
define linkonce_odr hidden noundef nonnull align 8 dereferenceable(8) ptr @_ZN9__gnu_cxx17__normal_iteratorIPKjSt6vectorIjSaIjEEEppEv(ptr noundef nonnull align 8 dereferenceable(8) %this) #6 comdat align 2 {
entry:
  %this.addr = alloca ptr, align 8
  store ptr %this, ptr %this.addr, align 8
  %this1 = load ptr, ptr %this.addr, align 8
  %_M_current = getelementptr inbounds %"class.__gnu_cxx::__normal_iterator.322", ptr %this1, i32 0, i32 0
  %0 = load ptr, ptr %_M_current, align 8
  %incdec.ptr = getelementptr inbounds i32, ptr %0, i32 1
  store ptr %incdec.ptr, ptr %_M_current, align 8
  ret ptr %this1
}

; Function Attrs: mustprogress nounwind uwtable
define linkonce_odr hidden noundef nonnull align 4 dereferenceable(4) ptr @_ZNK9__gnu_cxx17__normal_iteratorIPKjSt6vectorIjSaIjEEEdeEv(ptr noundef nonnull align 8 dereferenceable(8) %this) #6 comdat align 2 {
entry:
  %this.addr = alloca ptr, align 8
  store ptr %this, ptr %this.addr, align 8
  %this1 = load ptr, ptr %this.addr, align 8
  %_M_current = getelementptr inbounds %"class.__gnu_cxx::__normal_iterator.322", ptr %this1, i32 0, i32 0
  %0 = load ptr, ptr %_M_current, align 8
  ret ptr %0
}

; Function Attrs: mustprogress nounwind uwtable
define linkonce_odr noundef zeroext i1 @_ZN9__gnu_cxxneIPKjSt6vectorIjSaIjEEEEbRKNS_17__normal_iteratorIT_T0_EESB_(ptr noundef nonnull align 8 dereferenceable(8) %__lhs, ptr noundef nonnull align 8 dereferenceable(8) %__rhs) #6 comdat {
entry:
  %__lhs.addr = alloca ptr, align 8
  %__rhs.addr = alloca ptr, align 8
  store ptr %__lhs, ptr %__lhs.addr, align 8
  store ptr %__rhs, ptr %__rhs.addr, align 8
  %0 = load ptr, ptr %__lhs.addr, align 8
  %call = call noundef nonnull align 8 dereferenceable(8) ptr @_ZNK9__gnu_cxx17__normal_iteratorIPKjSt6vectorIjSaIjEEE4baseEv(ptr noundef nonnull align 8 dereferenceable(8) %0) #3
  %1 = load ptr, ptr %call, align 8
  %2 = load ptr, ptr %__rhs.addr, align 8
  %call1 = call noundef nonnull align 8 dereferenceable(8) ptr @_ZNK9__gnu_cxx17__normal_iteratorIPKjSt6vectorIjSaIjEEE4baseEv(ptr noundef nonnull align 8 dereferenceable(8) %2) #3
  %3 = load ptr, ptr %call1, align 8
  %cmp = icmp ne ptr %1, %3
  ret i1 %cmp
}

; Function Attrs: mustprogress nounwind uwtable
define linkonce_odr hidden ptr @_ZNKSt6vectorIjSaIjEE3endEv(ptr noundef nonnull align 8 dereferenceable(24) %this) #6 comdat align 2 {
entry:
  %retval = alloca %"class.__gnu_cxx::__normal_iterator.322", align 8
  %this.addr = alloca ptr, align 8
  store ptr %this, ptr %this.addr, align 8
  %this1 = load ptr, ptr %this.addr, align 8
  %_M_impl = getelementptr inbounds %"struct.std::_Vector_base", ptr %this1, i32 0, i32 0
  %_M_finish = getelementptr inbounds %"struct.std::_Vector_base<unsigned int, std::allocator<unsigned int>>::_Vector_impl_data", ptr %_M_impl, i32 0, i32 1
  call void @_ZN9__gnu_cxx17__normal_iteratorIPKjSt6vectorIjSaIjEEEC2ERKS2_(ptr noundef nonnull align 8 dereferenceable(8) %retval, ptr noundef nonnull align 8 dereferenceable(8) %_M_finish) #3
  %coerce.dive = getelementptr inbounds %"class.__gnu_cxx::__normal_iterator.322", ptr %retval, i32 0, i32 0
  %0 = load ptr, ptr %coerce.dive, align 8
  ret ptr %0
}

; Function Attrs: mustprogress nounwind uwtable
define linkonce_odr hidden ptr @_ZNKSt6vectorIjSaIjEE5beginEv(ptr noundef nonnull align 8 dereferenceable(24) %this) #6 comdat align 2 {
entry:
  %retval = alloca %"class.__gnu_cxx::__normal_iterator.322", align 8
  %this.addr = alloca ptr, align 8
  store ptr %this, ptr %this.addr, align 8
  %this1 = load ptr, ptr %this.addr, align 8
  %_M_impl = getelementptr inbounds %"struct.std::_Vector_base", ptr %this1, i32 0, i32 0
  %_M_start = getelementptr inbounds %"struct.std::_Vector_base<unsigned int, std::allocator<unsigned int>>::_Vector_impl_data", ptr %_M_impl, i32 0, i32 0
  call void @_ZN9__gnu_cxx17__normal_iteratorIPKjSt6vectorIjSaIjEEEC2ERKS2_(ptr noundef nonnull align 8 dereferenceable(8) %retval, ptr noundef nonnull align 8 dereferenceable(8) %_M_start) #3
  %coerce.dive = getelementptr inbounds %"class.__gnu_cxx::__normal_iterator.322", ptr %retval, i32 0, i32 0
  %0 = load ptr, ptr %coerce.dive, align 8
  ret ptr %0
}

; Function Attrs: mustprogress uwtable
define linkonce_odr hidden void @_ZN4cvc58internal6theory5arith6linear8ErrorSet16dropFromFocusAllERKSt6vectorIjSaIjEE(ptr noundef nonnull align 8 dereferenceable(240) %this, ptr noundef nonnull align 8 dereferenceable(24) %vec) #4 comdat align 2 {
entry:
  %this.addr = alloca ptr, align 8
  %vec.addr = alloca ptr, align 8
  %i = alloca %"class.__gnu_cxx::__normal_iterator.322", align 8
  %i_end = alloca %"class.__gnu_cxx::__normal_iterator.322", align 8
  %v = alloca i32, align 4
  store ptr %this, ptr %this.addr, align 8
  store ptr %vec, ptr %vec.addr, align 8
  %this1 = load ptr, ptr %this.addr, align 8
  %0 = load ptr, ptr %vec.addr, align 8
  %call = call ptr @_ZNKSt6vectorIjSaIjEE5beginEv(ptr noundef nonnull align 8 dereferenceable(24) %0) #3
  %coerce.dive = getelementptr inbounds %"class.__gnu_cxx::__normal_iterator.322", ptr %i, i32 0, i32 0
  store ptr %call, ptr %coerce.dive, align 8
  %1 = load ptr, ptr %vec.addr, align 8
  %call2 = call ptr @_ZNKSt6vectorIjSaIjEE3endEv(ptr noundef nonnull align 8 dereferenceable(24) %1) #3
  %coerce.dive3 = getelementptr inbounds %"class.__gnu_cxx::__normal_iterator.322", ptr %i_end, i32 0, i32 0
  store ptr %call2, ptr %coerce.dive3, align 8
  br label %for.cond

for.cond:                                         ; preds = %for.inc, %entry
  %call4 = call noundef zeroext i1 @_ZN9__gnu_cxxneIPKjSt6vectorIjSaIjEEEEbRKNS_17__normal_iteratorIT_T0_EESB_(ptr noundef nonnull align 8 dereferenceable(8) %i, ptr noundef nonnull align 8 dereferenceable(8) %i_end) #3
  br i1 %call4, label %for.body, label %for.end

for.body:                                         ; preds = %for.cond
  %call5 = call noundef nonnull align 4 dereferenceable(4) ptr @_ZNK9__gnu_cxx17__normal_iteratorIPKjSt6vectorIjSaIjEEEdeEv(ptr noundef nonnull align 8 dereferenceable(8) %i) #3
  %2 = load i32, ptr %call5, align 4
  store i32 %2, ptr %v, align 4
  %3 = load i32, ptr %v, align 4
  call void @_ZN4cvc58internal6theory5arith6linear8ErrorSet13dropFromFocusEj(ptr noundef nonnull align 8 dereferenceable(240) %this1, i32 noundef %3)
  br label %for.inc

for.inc:                                          ; preds = %for.body
  %call6 = call noundef nonnull align 8 dereferenceable(8) ptr @_ZN9__gnu_cxx17__normal_iteratorIPKjSt6vectorIjSaIjEEEppEv(ptr noundef nonnull align 8 dereferenceable(8) %i) #3
  br label %for.cond, !llvm.loop !17

for.end:                                          ; preds = %for.cond
  ret void
}

; Function Attrs: mustprogress nounwind uwtable
define linkonce_odr hidden noundef i64 @_ZNKSt6vectorIjSaIjEE4sizeEv(ptr noundef nonnull align 8 dereferenceable(24) %this) #6 comdat align 2 {
entry:
  %this.addr = alloca ptr, align 8
  store ptr %this, ptr %this.addr, align 8
  %this1 = load ptr, ptr %this.addr, align 8
  %_M_impl = getelementptr inbounds %"struct.std::_Vector_base", ptr %this1, i32 0, i32 0
  %_M_finish = getelementptr inbounds %"struct.std::_Vector_base<unsigned int, std::allocator<unsigned int>>::_Vector_impl_data", ptr %_M_impl, i32 0, i32 1
  %0 = load ptr, ptr %_M_finish, align 8
  %_M_impl2 = getelementptr inbounds %"struct.std::_Vector_base", ptr %this1, i32 0, i32 0
  %_M_start = getelementptr inbounds %"struct.std::_Vector_base<unsigned int, std::allocator<unsigned int>>::_Vector_impl_data", ptr %_M_impl2, i32 0, i32 0
  %1 = load ptr, ptr %_M_start, align 8
  %sub.ptr.lhs.cast = ptrtoint ptr %0 to i64
  %sub.ptr.rhs.cast = ptrtoint ptr %1 to i64
  %sub.ptr.sub = sub i64 %sub.ptr.lhs.cast, %sub.ptr.rhs.cast
  %sub.ptr.div = sdiv exact i64 %sub.ptr.sub, 4
  ret i64 %sub.ptr.div
}

; Function Attrs: mustprogress uwtable
define hidden noundef i32 @_ZN4cvc58internal6theory5arith6linear26FCSimplexDecisionProcedure17adjustFocusShrankERKSt6vectorIjSaIjEE(ptr noundef nonnull align 8 dereferenceable(648) %this, ptr noundef nonnull align 8 dereferenceable(24) %dropped) #4 align 2 {
entry:
  %this.addr = alloca ptr, align 8
  %dropped.addr = alloca ptr, align 8
  %newFocusSize = alloca i32, align 4
  store ptr %this, ptr %this.addr, align 8
  store ptr %dropped, ptr %dropped.addr, align 8
  %this1 = load ptr, ptr %this.addr, align 8
  %d_focusSize = getelementptr inbounds %"class.cvc5::internal::theory::arith::linear::FCSimplexDecisionProcedure", ptr %this1, i32 0, i32 2
  %0 = load i32, ptr %d_focusSize, align 8
  %conv = zext i32 %0 to i64
  %1 = load ptr, ptr %dropped.addr, align 8
  %call = call noundef i64 @_ZNKSt6vectorIjSaIjEE4sizeEv(ptr noundef nonnull align 8 dereferenceable(24) %1) #3
  %sub = sub i64 %conv, %call
  %conv2 = trunc i64 %sub to i32
  store i32 %conv2, ptr %newFocusSize, align 4
  %2 = load i32, ptr %newFocusSize, align 4
  %mul = mul i32 2, %2
  %d_focusSize3 = getelementptr inbounds %"class.cvc5::internal::theory::arith::linear::FCSimplexDecisionProcedure", ptr %this1, i32 0, i32 2
  %3 = load i32, ptr %d_focusSize3, align 8
  %cmp = icmp ule i32 %mul, %3
  br i1 %cmp, label %if.then, label %if.else

if.then:                                          ; preds = %entry
  %d_errorSet = getelementptr inbounds %"class.cvc5::internal::theory::arith::linear::SimplexDecisionProcedure", ptr %this1, i32 0, i32 7
  %4 = load ptr, ptr %d_errorSet, align 8
  %5 = load ptr, ptr %dropped.addr, align 8
  call void @_ZN4cvc58internal6theory5arith6linear8ErrorSet16dropFromFocusAllERKSt6vectorIjSaIjEE(ptr noundef nonnull align 8 dereferenceable(240) %4, ptr noundef nonnull align 8 dereferenceable(24) %5)
  %d_statistics = getelementptr inbounds %"class.cvc5::internal::theory::arith::linear::FCSimplexDecisionProcedure", ptr %this1, i32 0, i32 10
  %d_fcFocusConstructionTimer = getelementptr inbounds %"class.cvc5::internal::theory::arith::linear::FCSimplexDecisionProcedure::Statistics", ptr %d_statistics, i32 0, i32 6
  %d_focusErrorVar = getelementptr inbounds %"class.cvc5::internal::theory::arith::linear::FCSimplexDecisionProcedure", ptr %this1, i32 0, i32 3
  %6 = load i32, ptr %d_focusErrorVar, align 4
  call void @_ZN4cvc58internal6theory5arith6linear24SimplexDecisionProcedure28tearDownInfeasiblityFunctionERNS0_9TimerStatEj(ptr noundef nonnull align 8 dereferenceable(304) %this1, ptr noundef nonnull align 8 dereferenceable(8) %d_fcFocusConstructionTimer, i32 noundef %6)
  %d_statistics4 = getelementptr inbounds %"class.cvc5::internal::theory::arith::linear::FCSimplexDecisionProcedure", ptr %this1, i32 0, i32 10
  %d_fcFocusConstructionTimer5 = getelementptr inbounds %"class.cvc5::internal::theory::arith::linear::FCSimplexDecisionProcedure::Statistics", ptr %d_statistics4, i32 0, i32 6
  %call6 = call noundef i32 @_ZN4cvc58internal6theory5arith6linear24SimplexDecisionProcedure29constructInfeasiblityFunctionERNS0_9TimerStatE(ptr noundef nonnull align 8 dereferenceable(304) %this1, ptr noundef nonnull align 8 dereferenceable(8) %d_fcFocusConstructionTimer5)
  %d_focusErrorVar7 = getelementptr inbounds %"class.cvc5::internal::theory::arith::linear::FCSimplexDecisionProcedure", ptr %this1, i32 0, i32 3
  store i32 %call6, ptr %d_focusErrorVar7, align 4
  br label %if.end

if.else:                                          ; preds = %entry
  %d_statistics8 = getelementptr inbounds %"class.cvc5::internal::theory::arith::linear::FCSimplexDecisionProcedure", ptr %this1, i32 0, i32 10
  %d_fcFocusConstructionTimer9 = getelementptr inbounds %"class.cvc5::internal::theory::arith::linear::FCSimplexDecisionProcedure::Statistics", ptr %d_statistics8, i32 0, i32 6
  %d_focusErrorVar10 = getelementptr inbounds %"class.cvc5::internal::theory::arith::linear::FCSimplexDecisionProcedure", ptr %this1, i32 0, i32 3
  %7 = load i32, ptr %d_focusErrorVar10, align 4
  %8 = load ptr, ptr %dropped.addr, align 8
  call void @_ZN4cvc58internal6theory5arith6linear24SimplexDecisionProcedure16shrinkInfeasFuncERNS0_9TimerStatEjRKSt6vectorIjSaIjEE(ptr noundef nonnull align 8 dereferenceable(304) %this1, ptr noundef nonnull align 8 dereferenceable(8) %d_fcFocusConstructionTimer9, i32 noundef %7, ptr noundef nonnull align 8 dereferenceable(24) %8)
  %d_errorSet11 = getelementptr inbounds %"class.cvc5::internal::theory::arith::linear::SimplexDecisionProcedure", ptr %this1, i32 0, i32 7
  %9 = load ptr, ptr %d_errorSet11, align 8
  %10 = load ptr, ptr %dropped.addr, align 8
  call void @_ZN4cvc58internal6theory5arith6linear8ErrorSet16dropFromFocusAllERKSt6vectorIjSaIjEE(ptr noundef nonnull align 8 dereferenceable(240) %9, ptr noundef nonnull align 8 dereferenceable(24) %10)
  br label %if.end

if.end:                                           ; preds = %if.else, %if.then
  %11 = load i32, ptr %newFocusSize, align 4
  %d_focusSize12 = getelementptr inbounds %"class.cvc5::internal::theory::arith::linear::FCSimplexDecisionProcedure", ptr %this1, i32 0, i32 2
  store i32 %11, ptr %d_focusSize12, align 8
  ret i32 3
}