; Function Attrs: mustprogress uwtable
define hidden noundef i32 @_ZN4cvc58internal6theory5arith6linear26FCSimplexDecisionProcedure17adjustFocusShrankERKSt6vectorIjSaIjEE(ptr noundef nonnull align 8 dereferenceable(648) %this, ptr noundef nonnull align 8 dereferenceable(24) %dropped) local_unnamed_addr #3 align 2 {
entry:
  %d_focusSize = getelementptr inbounds i8, ptr %this, i64 376
  %0 = load i32, ptr %d_focusSize, align 8
  %_M_finish.i = getelementptr inbounds i8, ptr %dropped, i64 8
  %1 = load ptr, ptr %_M_finish.i, align 8
  %2 = load ptr, ptr %dropped, align 8
  %sub.ptr.lhs.cast.i = ptrtoint ptr %1 to i64
  %sub.ptr.rhs.cast.i = ptrtoint ptr %2 to i64
  %sub.ptr.sub.i = sub i64 %sub.ptr.lhs.cast.i, %sub.ptr.rhs.cast.i
  %sub.ptr.div.i = lshr exact i64 %sub.ptr.sub.i, 2
  %3 = trunc i64 %sub.ptr.div.i to i32
  %conv2 = sub i32 %0, %3
  %mul = shl i32 %conv2, 1
  %cmp.not = icmp ugt i32 %mul, %0
  br i1 %cmp.not, label %if.else, label %if.then

if.then:                                          ; preds = %entry
  %d_errorSet = getelementptr inbounds i8, ptr %this, i64 144
  %4 = load ptr, ptr %d_errorSet, align 8
  %cmp.i.not4.i = icmp eq ptr %2, %1
  br i1 %cmp.i.not4.i, label %_ZN4cvc58internal6theory5arith6linear8ErrorSet16dropFromFocusAllERKSt6vectorIjSaIjEE.exit, label %for.body.i

for.body.i:                                       ; preds = %if.then, %for.body.i
  %i.sroa.0.05.i = phi ptr [ %incdec.ptr.i.i, %for.body.i ], [ %2, %if.then ]
  %5 = load i32, ptr %i.sroa.0.05.i, align 4
  tail call void @_ZN4cvc58internal6theory5arith6linear8ErrorSet13dropFromFocusEj(ptr noundef nonnull align 8 dereferenceable(240) %4, i32 noundef %5)
  %incdec.ptr.i.i = getelementptr inbounds i8, ptr %i.sroa.0.05.i, i64 4
  %cmp.i.not.i = icmp eq ptr %incdec.ptr.i.i, %1
  br i1 %cmp.i.not.i, label %_ZN4cvc58internal6theory5arith6linear8ErrorSet16dropFromFocusAllERKSt6vectorIjSaIjEE.exit, label %for.body.i, !llvm.loop !12

_ZN4cvc58internal6theory5arith6linear8ErrorSet16dropFromFocusAllERKSt6vectorIjSaIjEE.exit: ; preds = %for.body.i, %if.then
  %d_fcFocusConstructionTimer = getelementptr inbounds i8, ptr %this, i64 616
  %d_focusErrorVar = getelementptr inbounds i8, ptr %this, i64 380
  %6 = load i32, ptr %d_focusErrorVar, align 4
  tail call void @_ZN4cvc58internal6theory5arith6linear24SimplexDecisionProcedure28tearDownInfeasiblityFunctionERNS0_9TimerStatEj(ptr noundef nonnull align 8 dereferenceable(304) %this, ptr noundef nonnull align 8 dereferenceable(8) %d_fcFocusConstructionTimer, i32 noundef %6)
  %call6 = tail call noundef i32 @_ZN4cvc58internal6theory5arith6linear24SimplexDecisionProcedure29constructInfeasiblityFunctionERNS0_9TimerStatE(ptr noundef nonnull align 8 dereferenceable(304) %this, ptr noundef nonnull align 8 dereferenceable(8) %d_fcFocusConstructionTimer)
  store i32 %call6, ptr %d_focusErrorVar, align 4
  br label %if.end

if.else:                                          ; preds = %entry
  %d_fcFocusConstructionTimer9 = getelementptr inbounds i8, ptr %this, i64 616
  %d_focusErrorVar10 = getelementptr inbounds i8, ptr %this, i64 380
  %7 = load i32, ptr %d_focusErrorVar10, align 4
  tail call void @_ZN4cvc58internal6theory5arith6linear24SimplexDecisionProcedure16shrinkInfeasFuncERNS0_9TimerStatEjRKSt6vectorIjSaIjEE(ptr noundef nonnull align 8 dereferenceable(304) %this, ptr noundef nonnull align 8 dereferenceable(8) %d_fcFocusConstructionTimer9, i32 noundef %7, ptr noundef nonnull align 8 dereferenceable(24) %dropped)
  %d_errorSet11 = getelementptr inbounds i8, ptr %this, i64 144
  %8 = load ptr, ptr %d_errorSet11, align 8
  %9 = load ptr, ptr %dropped, align 8
  %10 = load ptr, ptr %_M_finish.i, align 8
  %cmp.i.not4.i6 = icmp eq ptr %9, %10
  br i1 %cmp.i.not4.i6, label %if.end, label %for.body.i7

for.body.i7:                                      ; preds = %if.else, %for.body.i7
  %i.sroa.0.05.i8 = phi ptr [ %incdec.ptr.i.i9, %for.body.i7 ], [ %9, %if.else ]
  %11 = load i32, ptr %i.sroa.0.05.i8, align 4
  tail call void @_ZN4cvc58internal6theory5arith6linear8ErrorSet13dropFromFocusEj(ptr noundef nonnull align 8 dereferenceable(240) %8, i32 noundef %11)
  %incdec.ptr.i.i9 = getelementptr inbounds i8, ptr %i.sroa.0.05.i8, i64 4
  %cmp.i.not.i10 = icmp eq ptr %incdec.ptr.i.i9, %10
  br i1 %cmp.i.not.i10, label %if.end, label %for.body.i7, !llvm.loop !12

if.end:                                           ; preds = %for.body.i7, %if.else, %_ZN4cvc58internal6theory5arith6linear8ErrorSet16dropFromFocusAllERKSt6vectorIjSaIjEE.exit
  store i32 %conv2, ptr %d_focusSize, align 8
  ret i32 3
}